target datalayout = "e-m:e-p270:32:32-p271:32:32-p272:64:64-i64:64-i128:128-f80:128-n8:16:32:64-S128"
target triple = "x86_64-pc-linux-gnu"

%struct.FFStream = type { %struct.AVStream, ptr, i32, ptr, i32, ptr, i32, %struct.anon.1, i32, i32, %struct.FFFrac, ptr, ptr, i32, i32, i64, i64, i32, i32, i32, i64, i64, i64, i32, i64, i64, i64, i32, i32, [17 x i64], [17 x i8], [17 x i64], i64, i8, i8, %struct.AVRational, %struct.AVProbeData, ptr, i64, i32, i32, i32, ptr, i32, i32, i64, i64, ptr, %struct.AVRational }
%struct.AVStream = type { ptr, i32, i32, ptr, ptr, %struct.AVRational, i64, i64, i64, i32, i32, %struct.AVRational, ptr, %struct.AVRational, %struct.AVPacket, i32, %struct.AVRational, i32 }
%struct.AVPacket = type { ptr, i64, i64, ptr, i32, i32, i32, ptr, i32, i64, i64, ptr, ptr, %struct.AVRational }
%struct.anon.1 = type { ptr, i32 }
%struct.FFFrac = type { i64, i64, i64 }
%struct.AVProbeData = type { ptr, ptr, i32, ptr }
%struct.AVRational = type { i32, i32 }
%struct.FormatContextInternal = type { %struct.FFFormatContext, %union.anon }
%struct.FFFormatContext = type { %struct.AVFormatContext, i32, %struct.PacketList, i64, ptr, ptr, i32, ptr, i32 }
%struct.AVFormatContext = type { ptr, ptr, ptr, ptr, ptr, i32, i32, ptr, i32, ptr, i32, ptr, ptr, i64, i64, i64, i32, i32, i32, i64, i64, ptr, i32, i32, ptr, i32, i32, i32, i32, ptr, i64, i32, i32, %struct.AVIOInterruptCB, i32, i32, i32, i32, i64, i32, i32, i32, i32, i32, i32, i32, i32, i32, i32, i32, i32, i64, i32, i32, i32, i32, i32, ptr, ptr, ptr, ptr, i32, ptr, ptr, ptr, ptr, i32, ptr, ptr, i64, ptr, ptr, ptr, i64 }
%struct.AVIOInterruptCB = type { ptr, ptr }
%struct.PacketList = type { ptr, ptr }
%union.anon = type { %struct.anon.0 }
%struct.anon.0 = type { %struct.PacketList, i32, %struct.PacketList, i32, i32 }
%struct.AVInputFormat = type { ptr, ptr, i32, ptr, ptr, ptr, ptr }
%struct.FFInputFormat = type { %struct.AVInputFormat, i32, i32, i32, ptr, ptr, ptr, ptr, ptr, ptr, ptr, ptr, ptr, ptr }
%struct.PacketListEntry = type { ptr, %struct.AVPacket }

@.str.11 = private unnamed_addr constant [30 x i8] c"Assertion %s failed at %s:%d\0A\00", align 1
@.str.12 = private unnamed_addr constant [24 x i8] c"sti->request_probe <= 0\00", align 1
@.str.13 = private unnamed_addr constant [20 x i8] c"libavformat/demux.c\00", align 1

; Function Attrs: inlinehint nounwind uwtable
define internal ptr @ffifmt(ptr noundef %0) #4 {
  %2 = alloca ptr, align 8
  store ptr %0, ptr %2, align 8, !tbaa !42
  %3 = load ptr, ptr %2, align 8, !tbaa !42
  ret ptr %3
}

; Function Attrs: alwaysinline nounwind uwtable
define internal ptr @ffstream(ptr noundef %0) #3 {
  %2 = alloca ptr, align 8
  store ptr %0, ptr %2, align 8, !tbaa !4
  %3 = load ptr, ptr %2, align 8, !tbaa !4
  ret ptr %3
}

; Function Attrs: alwaysinline nounwind uwtable
define internal ptr @ff_fc_internal(ptr noundef %0) #3 {
  %2 = alloca ptr, align 8
  store ptr %0, ptr %2, align 8, !tbaa !46
  %3 = load ptr, ptr %2, align 8, !tbaa !46
  ret ptr %3
}

; Function Attrs: nounwind uwtable
define i32 @ff_read_packet(ptr noundef %0, ptr noundef %1) #0 {
  %3 = alloca i32, align 4
  %4 = alloca ptr, align 8
  %5 = alloca ptr, align 8
  %6 = alloca ptr, align 8
  %7 = alloca i32, align 4
  %8 = alloca ptr, align 8
  %9 = alloca ptr, align 8
  %10 = alloca i32, align 4
  %11 = alloca i32, align 4
  %12 = alloca ptr, align 8
  %13 = alloca ptr, align 8
  store ptr %0, ptr %4, align 8, !tbaa !46
  store ptr %1, ptr %5, align 8, !tbaa !124
  call void @llvm.lifetime.start.p0(i64 8, ptr %6) #13
  %14 = load ptr, ptr %4, align 8, !tbaa !46
  %15 = call ptr @ff_fc_internal(ptr noundef %14)
  store ptr %15, ptr %6, align 8, !tbaa !51
  call void @llvm.lifetime.start.p0(i64 4, ptr %7) #13
  %16 = load ptr, ptr %5, align 8, !tbaa !124
  %17 = getelementptr inbounds nuw %struct.AVPacket, ptr %16, i32 0, i32 3
  store ptr null, ptr %17, align 8, !tbaa !130
  %18 = load ptr, ptr %5, align 8, !tbaa !124
  %19 = getelementptr inbounds nuw %struct.AVPacket, ptr %18, i32 0, i32 4
  store i32 0, ptr %19, align 8, !tbaa !129
  %20 = load ptr, ptr %5, align 8, !tbaa !124
  call void @av_init_packet(ptr noundef %20)
  br label %21

21:                                               ; preds = %179, %177, %2
  call void @llvm.lifetime.start.p0(i64 8, ptr %8) #13
  %22 = load ptr, ptr %6, align 8, !tbaa !51
  %23 = getelementptr inbounds nuw %struct.FormatContextInternal, ptr %22, i32 0, i32 1
  %24 = getelementptr inbounds nuw %struct.anon.0, ptr %23, i32 0, i32 0
  %25 = getelementptr inbounds nuw %struct.PacketList, ptr %24, i32 0, i32 0
  %26 = load ptr, ptr %25, align 8, !tbaa !96
  store ptr %26, ptr %8, align 8, !tbaa !131
  %27 = load ptr, ptr %8, align 8, !tbaa !131
  %28 = icmp ne ptr %27, null
  br i1 %28, label %29, label %81

29:                                               ; preds = %21
  call void @llvm.lifetime.start.p0(i64 8, ptr %9) #13
  %30 = load ptr, ptr %4, align 8, !tbaa !46
  %31 = getelementptr inbounds nuw %struct.AVFormatContext, ptr %30, i32 0, i32 7
  %32 = load ptr, ptr %31, align 8, !tbaa !104
  %33 = load ptr, ptr %8, align 8, !tbaa !131
  %34 = getelementptr inbounds nuw %struct.PacketListEntry, ptr %33, i32 0, i32 1
  %35 = getelementptr inbounds nuw %struct.AVPacket, ptr %34, i32 0, i32 5
  %36 = load i32, ptr %35, align 4, !tbaa !132
  %37 = sext i32 %36 to i64
  %38 = getelementptr inbounds ptr, ptr %32, i64 %37
  %39 = load ptr, ptr %38, align 8, !tbaa !4
  store ptr %39, ptr %9, align 8, !tbaa !4
  %40 = load ptr, ptr %6, align 8, !tbaa !51
  %41 = getelementptr inbounds nuw %struct.FormatContextInternal, ptr %40, i32 0, i32 1
  %42 = getelementptr inbounds nuw %struct.anon.0, ptr %41, i32 0, i32 1
  %43 = load i32, ptr %42, align 8, !tbaa !96
  %44 = sext i32 %43 to i64
  %45 = load ptr, ptr %4, align 8, !tbaa !46
  %46 = getelementptr inbounds nuw %struct.AVFormatContext, ptr %45, i32 0, i32 19
  %47 = load i64, ptr %46, align 8, !tbaa !134
  %48 = icmp sge i64 %44, %47
  br i1 %48, label %49, label %57

49:                                               ; preds = %29
  %50 = load ptr, ptr %4, align 8, !tbaa !46
  %51 = load ptr, ptr %9, align 8, !tbaa !4
  %52 = call i32 @probe_codec(ptr noundef %50, ptr noundef %51, ptr noundef null)
  store i32 %52, ptr %7, align 4, !tbaa !50
  %53 = icmp slt i32 %52, 0
  br i1 %53, label %54, label %56

54:                                               ; preds = %49
  %55 = load i32, ptr %7, align 4, !tbaa !50
  store i32 %55, ptr %3, align 4
  store i32 1, ptr %10, align 4
  br label %78

56:                                               ; preds = %49
  br label %57

57:                                               ; preds = %56, %29
  %58 = load ptr, ptr %9, align 8, !tbaa !4
  %59 = call ptr @ffstream(ptr noundef %58)
  %60 = getelementptr inbounds nuw %struct.FFStream, ptr %59, i32 0, i32 17
  %61 = load i32, ptr %60, align 8, !tbaa !128
  %62 = icmp sle i32 %61, 0
  br i1 %62, label %63, label %77

63:                                               ; preds = %57
  %64 = load ptr, ptr %6, align 8, !tbaa !51
  %65 = getelementptr inbounds nuw %struct.FormatContextInternal, ptr %64, i32 0, i32 1
  %66 = getelementptr inbounds nuw %struct.anon.0, ptr %65, i32 0, i32 0
  %67 = load ptr, ptr %5, align 8, !tbaa !124
  %68 = call i32 @avpriv_packet_list_get(ptr noundef %66, ptr noundef %67)
  %69 = load ptr, ptr %5, align 8, !tbaa !124
  %70 = getelementptr inbounds nuw %struct.AVPacket, ptr %69, i32 0, i32 4
  %71 = load i32, ptr %70, align 8, !tbaa !129
  %72 = load ptr, ptr %6, align 8, !tbaa !51
  %73 = getelementptr inbounds nuw %struct.FormatContextInternal, ptr %72, i32 0, i32 1
  %74 = getelementptr inbounds nuw %struct.anon.0, ptr %73, i32 0, i32 1
  %75 = load i32, ptr %74, align 8, !tbaa !96
  %76 = sub nsw i32 %75, %71
  store i32 %76, ptr %74, align 8, !tbaa !96
  store i32 0, ptr %3, align 4
  store i32 1, ptr %10, align 4
  br label %78

77:                                               ; preds = %57
  store i32 0, ptr %10, align 4
  br label %78

78:                                               ; preds = %77, %63, %54
  call void @llvm.lifetime.end.p0(i64 8, ptr %9) #13
  %79 = load i32, ptr %10, align 4
  switch i32 %79, label %177 [
    i32 0, label %80
  ]

80:                                               ; preds = %78
  br label %81

81:                                               ; preds = %80, %21
  %82 = load ptr, ptr %4, align 8, !tbaa !46
  %83 = getelementptr inbounds nuw %struct.AVFormatContext, ptr %82, i32 0, i32 1
  %84 = load ptr, ptr %83, align 8, !tbaa !65
  %85 = call ptr @ffifmt(ptr noundef %84)
  %86 = getelementptr inbounds nuw %struct.FFInputFormat, ptr %85, i32 0, i32 6
  %87 = load ptr, ptr %86, align 8, !tbaa !135
  %88 = load ptr, ptr %4, align 8, !tbaa !46
  %89 = load ptr, ptr %5, align 8, !tbaa !124
  %90 = call i32 %87(ptr noundef %88, ptr noundef %89)
  store i32 %90, ptr %7, align 4, !tbaa !50
  %91 = load i32, ptr %7, align 4, !tbaa !50
  %92 = icmp slt i32 %91, 0
  br i1 %92, label %93, label %160

93:                                               ; preds = %81
  %94 = load ptr, ptr %5, align 8, !tbaa !124
  call void @av_packet_unref(ptr noundef %94)
  %95 = load i32, ptr %7, align 4, !tbaa !50
  %96 = icmp eq i32 %95, -1329874258
  br i1 %96, label %97, label %98

97:                                               ; preds = %93
  store i32 3, ptr %10, align 4
  br label %177

98:                                               ; preds = %93
  %99 = load ptr, ptr %8, align 8, !tbaa !131
  %100 = icmp ne ptr %99, null
  br i1 %100, label %101, label %104

101:                                              ; preds = %98
  %102 = load i32, ptr %7, align 4, !tbaa !50
  %103 = icmp eq i32 %102, -11
  br i1 %103, label %104, label %106

104:                                              ; preds = %101, %98
  %105 = load i32, ptr %7, align 4, !tbaa !50
  store i32 %105, ptr %3, align 4
  store i32 1, ptr %10, align 4
  br label %177

106:                                              ; preds = %101
  call void @llvm.lifetime.start.p0(i64 4, ptr %11) #13
  store i32 0, ptr %11, align 4, !tbaa !50
  br label %107

107:                                              ; preds = %154, %106
  %108 = load i32, ptr %11, align 4, !tbaa !50
  %109 = load ptr, ptr %4, align 8, !tbaa !46
  %110 = getelementptr inbounds nuw %struct.AVFormatContext, ptr %109, i32 0, i32 6
  %111 = load i32, ptr %110, align 4, !tbaa !103
  %112 = icmp ult i32 %108, %111
  br i1 %112, label %114, label %113

113:                                              ; preds = %107
  store i32 4, ptr %10, align 4
  br label %157

114:                                              ; preds = %107
  call void @llvm.lifetime.start.p0(i64 8, ptr %12) #13
  %115 = load ptr, ptr %4, align 8, !tbaa !46
  %116 = getelementptr inbounds nuw %struct.AVFormatContext, ptr %115, i32 0, i32 7
  %117 = load ptr, ptr %116, align 8, !tbaa !104
  %118 = load i32, ptr %11, align 4, !tbaa !50
  %119 = zext i32 %118 to i64
  %120 = getelementptr inbounds nuw ptr, ptr %117, i64 %119
  %121 = load ptr, ptr %120, align 8, !tbaa !4
  store ptr %121, ptr %12, align 8, !tbaa !4
  call void @llvm.lifetime.start.p0(i64 8, ptr %13) #13
  %122 = load ptr, ptr %12, align 8, !tbaa !4
  %123 = call ptr @ffstream(ptr noundef %122)
  store ptr %123, ptr %13, align 8, !tbaa !11
  %124 = load ptr, ptr %13, align 8, !tbaa !11
  %125 = getelementptr inbounds nuw %struct.FFStream, ptr %124, i32 0, i32 40
  %126 = load i32, ptr %125, align 4, !tbaa !136
  %127 = icmp ne i32 %126, 0
  br i1 %127, label %133, label %128

128:                                              ; preds = %114
  %129 = load ptr, ptr %13, align 8, !tbaa !11
  %130 = getelementptr inbounds nuw %struct.FFStream, ptr %129, i32 0, i32 17
  %131 = load i32, ptr %130, align 8, !tbaa !128
  %132 = icmp sgt i32 %131, 0
  br i1 %132, label %133, label %141

133:                                              ; preds = %128, %114
  %134 = load ptr, ptr %4, align 8, !tbaa !46
  %135 = load ptr, ptr %12, align 8, !tbaa !4
  %136 = call i32 @probe_codec(ptr noundef %134, ptr noundef %135, ptr noundef null)
  store i32 %136, ptr %7, align 4, !tbaa !50
  %137 = icmp slt i32 %136, 0
  br i1 %137, label %138, label %140

138:                                              ; preds = %133
  %139 = load i32, ptr %7, align 4, !tbaa !50
  store i32 %139, ptr %3, align 4
  store i32 1, ptr %10, align 4
  br label %151

140:                                              ; preds = %133
  br label %141

141:                                              ; preds = %140, %128
  br label %142

142:                                              ; preds = %141
  %143 = load ptr, ptr %13, align 8, !tbaa !11
  %144 = getelementptr inbounds nuw %struct.FFStream, ptr %143, i32 0, i32 17
  %145 = load i32, ptr %144, align 8, !tbaa !128
  %146 = icmp sle i32 %145, 0
  br i1 %146, label %148, label %147

147:                                              ; preds = %142
  call void (ptr, i32, ptr, ...) @av_log(ptr noundef null, i32 noundef 0, ptr noundef @.str.11, ptr noundef @.str.12, ptr noundef @.str.13, i32 noundef 667)
  call void @abort() #15
  unreachable

148:                                              ; preds = %142
  br label %149

149:                                              ; preds = %148
  br label %150

150:                                              ; preds = %149
  store i32 0, ptr %10, align 4
  br label %151

151:                                              ; preds = %150, %138
  call void @llvm.lifetime.end.p0(i64 8, ptr %13) #13
  call void @llvm.lifetime.end.p0(i64 8, ptr %12) #13
  %152 = load i32, ptr %10, align 4
  switch i32 %152, label %157 [
    i32 0, label %153
  ]

153:                                              ; preds = %151
  br label %154

154:                                              ; preds = %153
  %155 = load i32, ptr %11, align 4, !tbaa !50
  %156 = add i32 %155, 1
  store i32 %156, ptr %11, align 4, !tbaa !50
  br label %107, !llvm.loop !137

157:                                              ; preds = %151, %113
  call void @llvm.lifetime.end.p0(i64 4, ptr %11) #13
  %158 = load i32, ptr %10, align 4
  switch i32 %158, label %177 [
    i32 4, label %159
  ]

159:                                              ; preds = %157
  store i32 3, ptr %10, align 4
  br label %177

160:                                              ; preds = %81
  %161 = load ptr, ptr %5, align 8, !tbaa !124
  %162 = call i32 @av_packet_make_refcounted(ptr noundef %161)
  store i32 %162, ptr %7, align 4, !tbaa !50
  %163 = load i32, ptr %7, align 4, !tbaa !50
  %164 = icmp slt i32 %163, 0
  br i1 %164, label %165, label %168

165:                                              ; preds = %160
  %166 = load ptr, ptr %5, align 8, !tbaa !124
  call void @av_packet_unref(ptr noundef %166)
  %167 = load i32, ptr %7, align 4, !tbaa !50
  store i32 %167, ptr %3, align 4
  store i32 1, ptr %10, align 4
  br label %177

168:                                              ; preds = %160
  %169 = load ptr, ptr %4, align 8, !tbaa !46
  %170 = load ptr, ptr %5, align 8, !tbaa !124
  %171 = call i32 @handle_new_packet(ptr noundef %169, ptr noundef %170, i32 noundef 1)
  store i32 %171, ptr %7, align 4, !tbaa !50
  %172 = load i32, ptr %7, align 4, !tbaa !50
  %173 = icmp sle i32 %172, 0
  br i1 %173, label %174, label %176

174:                                              ; preds = %168
  %175 = load i32, ptr %7, align 4, !tbaa !50
  store i32 %175, ptr %3, align 4
  store i32 1, ptr %10, align 4
  br label %177

176:                                              ; preds = %168
  store i32 0, ptr %10, align 4
  br label %177

177:                                              ; preds = %176, %174, %165, %159, %157, %104, %97, %78
  call void @llvm.lifetime.end.p0(i64 8, ptr %8) #13
  %178 = load i32, ptr %10, align 4
  switch i32 %178, label %180 [
    i32 0, label %179
    i32 3, label %21
  ]

179:                                              ; preds = %177
  br label %21

180:                                              ; preds = %177
  call void @llvm.lifetime.end.p0(i64 4, ptr %7) #13
  call void @llvm.lifetime.end.p0(i64 8, ptr %6) #13
  %181 = load i32, ptr %3, align 4
  ret i32 %181
}