; Function Attrs: nounwind uwtable
define range(i32 -2147483648, 1) i32 @ff_read_packet(ptr noundef %0, ptr noundef initializes((24, 36)) %1) local_unnamed_addr #1 {
  %3 = getelementptr inbounds nuw i8, ptr %1, i64 24
  store ptr null, ptr %3, align 8, !tbaa !137
  %4 = getelementptr inbounds nuw i8, ptr %1, i64 32
  store i32 0, ptr %4, align 8, !tbaa !136
  tail call void @av_init_packet(ptr noundef %1) #15
  %5 = getelementptr inbounds nuw i8, ptr %0, i64 544
  %6 = getelementptr inbounds nuw i8, ptr %0, i64 48
  %7 = getelementptr inbounds nuw i8, ptr %0, i64 560
  %8 = getelementptr inbounds nuw i8, ptr %0, i64 136
  %9 = getelementptr inbounds nuw i8, ptr %0, i64 8
  %10 = getelementptr inbounds nuw i8, ptr %0, i64 44
  br label %.loopexit

.loopexit:                                        ; preds = %.loopexit.backedge, %2
  %11 = load ptr, ptr %5, align 8, !tbaa !85
  %.not = icmp eq ptr %11, null
  br i1 %.not, label %.thread, label %12

12:                                               ; preds = %.loopexit
  %13 = load ptr, ptr %6, align 8, !tbaa !88
  %14 = getelementptr inbounds nuw i8, ptr %11, i64 44
  %15 = load i32, ptr %14, align 4, !tbaa !138
  %16 = sext i32 %15 to i64
  %17 = getelementptr inbounds ptr, ptr %13, i64 %16
  %18 = load ptr, ptr %17, align 8, !tbaa !89
  %19 = load i32, ptr %7, align 8, !tbaa !85
  %20 = sext i32 %19 to i64
  %21 = load i64, ptr %8, align 8, !tbaa !140
  %.not65 = icmp sgt i64 %21, %20
  br i1 %.not65, label %23, label %22

22:                                               ; preds = %12
  tail call fastcc void @probe_codec(ptr noundef nonnull %0, ptr noundef %18, ptr noundef null)
  br label %23

23:                                               ; preds = %22, %12
  %24 = getelementptr inbounds nuw i8, ptr %18, i64 352
  %25 = load i32, ptr %24, align 8, !tbaa !135
  %26 = icmp sgt i32 %25, 0
  br i1 %26, label %.thread, label %27

27:                                               ; preds = %23
  %28 = tail call i32 @avpriv_packet_list_get(ptr noundef nonnull %5, ptr noundef %1) #15
  %29 = load i32, ptr %4, align 8, !tbaa !136
  %30 = load i32, ptr %7, align 8, !tbaa !85
  %31 = sub nsw i32 %30, %29
  store i32 %31, ptr %7, align 8, !tbaa !85
  br label %select.unfold

.thread:                                          ; preds = %23, %.loopexit
  %32 = load ptr, ptr %9, align 8, !tbaa !49
  %33 = getelementptr inbounds nuw i8, ptr %32, i64 88
  %34 = load ptr, ptr %33, align 8, !tbaa !141
  %35 = tail call i32 %34(ptr noundef nonnull %0, ptr noundef %1) #15
  %36 = icmp slt i32 %35, 0
  br i1 %36, label %37, label %57

37:                                               ; preds = %.thread
  tail call void @av_packet_unref(ptr noundef %1) #15
  %38 = icmp eq i32 %35, -1329874258
  br i1 %38, label %.loopexit.backedge, label %39

39:                                               ; preds = %37
  %40 = icmp eq i32 %35, -11
  %or.cond = or i1 %.not, %40
  br i1 %or.cond, label %select.unfold, label %.preheader

.preheader:                                       ; preds = %39
  %41 = load i32, ptr %10, align 4, !tbaa !87
  %.not78 = icmp eq i32 %41, 0
  br i1 %.not78, label %.loopexit.backedge, label %.lr.ph

.loopexit.backedge:                               ; preds = %.thread80, %.preheader, %61, %37
  br label %.loopexit

.thread80:                                        ; preds = %50, %54
  %indvars.iv.next = add nuw nsw i64 %indvars.iv, 1
  %42 = load i32, ptr %10, align 4, !tbaa !87
  %43 = zext i32 %42 to i64
  %44 = icmp samesign ult i64 %indvars.iv.next, %43
  br i1 %44, label %.lr.ph, label %.loopexit.backedge, !llvm.loop !142

.lr.ph:                                           ; preds = %.preheader, %.thread80
  %indvars.iv = phi i64 [ %indvars.iv.next, %.thread80 ], [ 0, %.preheader ]
  %45 = load ptr, ptr %6, align 8, !tbaa !88
  %46 = getelementptr inbounds nuw ptr, ptr %45, i64 %indvars.iv
  %47 = load ptr, ptr %46, align 8, !tbaa !89
  %48 = getelementptr inbounds nuw i8, ptr %47, i64 804
  %49 = load i32, ptr %48, align 4, !tbaa !143
  %.not66 = icmp eq i32 %49, 0
  br i1 %.not66, label %50, label %54

50:                                               ; preds = %.lr.ph
  %51 = getelementptr inbounds nuw i8, ptr %47, i64 352
  %52 = load i32, ptr %51, align 8, !tbaa !135
  %53 = icmp sgt i32 %52, 0
  br i1 %53, label %54, label %.thread80

54:                                               ; preds = %.lr.ph, %50
  tail call fastcc void @probe_codec(ptr noundef nonnull %0, ptr noundef nonnull %47, ptr noundef null)
  %.phi.trans.insert = getelementptr inbounds nuw i8, ptr %47, i64 352
  %.pre = load i32, ptr %.phi.trans.insert, align 8, !tbaa !135
  %55 = icmp slt i32 %.pre, 1
  br i1 %55, label %.thread80, label %56

56:                                               ; preds = %54
  tail call void (ptr, i32, ptr, ...) @av_log(ptr noundef null, i32 noundef 0, ptr noundef nonnull @.str.11, ptr noundef nonnull @.str.12, ptr noundef nonnull @.str.13, i32 noundef 667) #15
  tail call void @abort() #17
  unreachable

57:                                               ; preds = %.thread
  %58 = tail call i32 @av_packet_make_refcounted(ptr noundef %1) #15
  %59 = icmp slt i32 %58, 0
  br i1 %59, label %60, label %61

60:                                               ; preds = %57
  tail call void @av_packet_unref(ptr noundef %1) #15
  br label %select.unfold

61:                                               ; preds = %57
  %62 = tail call fastcc i32 @handle_new_packet(ptr noundef nonnull %0, ptr noundef %1, i32 noundef 1)
  %63 = icmp slt i32 %62, 1
  br i1 %63, label %select.unfold, label %.loopexit.backedge

select.unfold:                                    ; preds = %61, %39, %60, %27
  %.3.ph = phi i32 [ 0, %27 ], [ %58, %60 ], [ %62, %61 ], [ %35, %39 ]
  ret i32 %.3.ph
}